(lp0
S'poi'
p1
aS'to_messages'
p2
aS'shared_receipt_with_poi'
p3
aS'from_messages'
p4
aS'from_this_person_to_poi'
p5
aS'from_poi_to_this_person'
p6
aS'total_stock_value'
p7
aS'total_payments'
p8
aS'restricted_stock'
p9
aS'exercised_stock_options'
p10
aS'salary'
p11
aS'expenses'
p12
aS'other'
p13
aS'bonus'
p14
aS'long_term_incentive'
p15
aS'deferred_income'
p16
aS'perc_salary'
p17
aS'perc_to_poi'
p18
aS'perc_from_poi'
p19
a.